target datalayout = "e-m:e-p270:32:32-p271:32:32-p272:64:64-i64:64-i128:128-f80:128-n8:16:32:64-S128"
target triple = "x86_64-unknown-linux-gnu"

%"class.std::__cxx11::basic_string" = type { %"struct.std::__cxx11::basic_string<char>::_Alloc_hider", i64, %union.anon }
%"struct.std::__cxx11::basic_string<char>::_Alloc_hider" = type { ptr }
%union.anon = type { i64, [8 x i8] }
%"class.__gnu_cxx::__normal_iterator.4" = type { ptr }

; Function Attrs: mustprogress nounwind uwtable
define linkonce_odr hidden noundef nonnull align 8 dereferenceable(8) ptr @_ZNK9__gnu_cxx17__normal_iteratorIPKcNSt7__cxx1112basic_stringIcSt11char_traitsIcESaIcEEEE4baseEv(ptr noundef nonnull align 8 dereferenceable(8) %this) #4 comdat align 2 {
entry:
  %this.addr = alloca ptr, align 8
  store ptr %this, ptr %this.addr, align 8
  %this1 = load ptr, ptr %this.addr, align 8
  %_M_current = getelementptr inbounds %"class.__gnu_cxx::__normal_iterator.4", ptr %this1, i32 0, i32 0
  ret ptr %_M_current
}

; Function Attrs: mustprogress nounwind uwtable
define linkonce_odr hidden noundef nonnull align 8 dereferenceable(8) ptr @_ZN9__gnu_cxx17__normal_iteratorIPKcNSt7__cxx1112basic_stringIcSt11char_traitsIcESaIcEEEEppEv(ptr noundef nonnull align 8 dereferenceable(8) %this) #4 comdat align 2 {
entry:
  %this.addr = alloca ptr, align 8
  store ptr %this, ptr %this.addr, align 8
  %this1 = load ptr, ptr %this.addr, align 8
  %_M_current = getelementptr inbounds %"class.__gnu_cxx::__normal_iterator.4", ptr %this1, i32 0, i32 0
  %0 = load ptr, ptr %_M_current, align 8
  %incdec.ptr = getelementptr inbounds i8, ptr %0, i32 1
  store ptr %incdec.ptr, ptr %_M_current, align 8
  ret ptr %this1
}

; Function Attrs: mustprogress nounwind uwtable
define internal noundef zeroext i1 @_ZN6google8protobuf2io12_GLOBAL__N_112Alphanumeric7InClassEc(i8 noundef signext %c) #4 align 2 {
entry:
  %c.addr = alloca i8, align 1
  store i8 %c, ptr %c.addr, align 1
  %0 = load i8, ptr %c.addr, align 1
  %conv = sext i8 %0 to i32
  %cmp = icmp sle i32 97, %conv
  br i1 %cmp, label %land.lhs.true, label %lor.lhs.false

land.lhs.true:                                    ; preds = %entry
  %1 = load i8, ptr %c.addr, align 1
  %conv1 = sext i8 %1 to i32
  %cmp2 = icmp sle i32 %conv1, 122
  br i1 %cmp2, label %lor.end, label %lor.lhs.false

lor.lhs.false:                                    ; preds = %land.lhs.true, %entry
  %2 = load i8, ptr %c.addr, align 1
  %conv3 = sext i8 %2 to i32
  %cmp4 = icmp sle i32 65, %conv3
  br i1 %cmp4, label %land.lhs.true5, label %lor.lhs.false8

land.lhs.true5:                                   ; preds = %lor.lhs.false
  %3 = load i8, ptr %c.addr, align 1
  %conv6 = sext i8 %3 to i32
  %cmp7 = icmp sle i32 %conv6, 90
  br i1 %cmp7, label %lor.end, label %lor.lhs.false8

lor.lhs.false8:                                   ; preds = %land.lhs.true5, %lor.lhs.false
  %4 = load i8, ptr %c.addr, align 1
  %conv9 = sext i8 %4 to i32
  %cmp10 = icmp sle i32 48, %conv9
  br i1 %cmp10, label %land.lhs.true11, label %lor.rhs

land.lhs.true11:                                  ; preds = %lor.lhs.false8
  %5 = load i8, ptr %c.addr, align 1
  %conv12 = sext i8 %5 to i32
  %cmp13 = icmp sle i32 %conv12, 57
  br i1 %cmp13, label %lor.end, label %lor.rhs

lor.rhs:                                          ; preds = %land.lhs.true11, %lor.lhs.false8
  %6 = load i8, ptr %c.addr, align 1
  %conv14 = sext i8 %6 to i32
  %cmp15 = icmp eq i32 %conv14, 95
  br label %lor.end

lor.end:                                          ; preds = %lor.rhs, %land.lhs.true11, %land.lhs.true5, %land.lhs.true
  %7 = phi i1 [ true, %land.lhs.true11 ], [ true, %land.lhs.true5 ], [ true, %land.lhs.true ], [ %cmp15, %lor.rhs ]
  ret i1 %7
}

; Function Attrs: mustprogress nounwind uwtable
define linkonce_odr hidden noundef nonnull align 1 dereferenceable(1) ptr @_ZNK9__gnu_cxx17__normal_iteratorIPKcNSt7__cxx1112basic_stringIcSt11char_traitsIcESaIcEEEEdeEv(ptr noundef nonnull align 8 dereferenceable(8) %this) #4 comdat align 2 {
entry:
  %this.addr = alloca ptr, align 8
  store ptr %this, ptr %this.addr, align 8
  %this1 = load ptr, ptr %this.addr, align 8
  %_M_current = getelementptr inbounds %"class.__gnu_cxx::__normal_iterator.4", ptr %this1, i32 0, i32 0
  %0 = load ptr, ptr %_M_current, align 8
  ret ptr %0
}

; Function Attrs: mustprogress nounwind uwtable
define linkonce_odr noundef zeroext i1 @_ZN9__gnu_cxxneIPKcNSt7__cxx1112basic_stringIcSt11char_traitsIcESaIcEEEEEbRKNS_17__normal_iteratorIT_T0_EESE_(ptr noundef nonnull align 8 dereferenceable(8) %__lhs, ptr noundef nonnull align 8 dereferenceable(8) %__rhs) #4 comdat {
entry:
  %__lhs.addr = alloca ptr, align 8
  %__rhs.addr = alloca ptr, align 8
  store ptr %__lhs, ptr %__lhs.addr, align 8
  store ptr %__rhs, ptr %__rhs.addr, align 8
  %0 = load ptr, ptr %__lhs.addr, align 8
  %call = call noundef nonnull align 8 dereferenceable(8) ptr @_ZNK9__gnu_cxx17__normal_iteratorIPKcNSt7__cxx1112basic_stringIcSt11char_traitsIcESaIcEEEE4baseEv(ptr noundef nonnull align 8 dereferenceable(8) %0) #3
  %1 = load ptr, ptr %call, align 8
  %2 = load ptr, ptr %__rhs.addr, align 8
  %call1 = call noundef nonnull align 8 dereferenceable(8) ptr @_ZNK9__gnu_cxx17__normal_iteratorIPKcNSt7__cxx1112basic_stringIcSt11char_traitsIcESaIcEEEE4baseEv(ptr noundef nonnull align 8 dereferenceable(8) %2) #3
  %3 = load ptr, ptr %call1, align 8
  %cmp = icmp ne ptr %1, %3
  ret i1 %cmp
}

; Function Attrs: mustprogress nounwind uwtable
define internal noundef zeroext i1 @_ZN6google8protobuf2ioL10AllInClassINS1_12_GLOBAL__N_112AlphanumericEEEbRKNSt7__cxx1112basic_stringIcSt11char_traitsIcESaIcEEE(ptr noundef nonnull align 8 dereferenceable(32) %s) #4 {
entry:
  %retval = alloca i1, align 1
  %s.addr = alloca ptr, align 8
  %__range3 = alloca ptr, align 8
  %__begin3 = alloca %"class.__gnu_cxx::__normal_iterator.4", align 8
  %__end3 = alloca %"class.__gnu_cxx::__normal_iterator.4", align 8
  %character = alloca i8, align 1
  store ptr %s, ptr %s.addr, align 8
  %0 = load ptr, ptr %s.addr, align 8
  store ptr %0, ptr %__range3, align 8
  %1 = load ptr, ptr %__range3, align 8
  %call = call ptr @_ZNKSt7__cxx1112basic_stringIcSt11char_traitsIcESaIcEE5beginEv(ptr noundef nonnull align 8 dereferenceable(32) %1) #3
  %coerce.dive = getelementptr inbounds %"class.__gnu_cxx::__normal_iterator.4", ptr %__begin3, i32 0, i32 0
  store ptr %call, ptr %coerce.dive, align 8
  %2 = load ptr, ptr %__range3, align 8
  %call1 = call ptr @_ZNKSt7__cxx1112basic_stringIcSt11char_traitsIcESaIcEE3endEv(ptr noundef nonnull align 8 dereferenceable(32) %2) #3
  %coerce.dive2 = getelementptr inbounds %"class.__gnu_cxx::__normal_iterator.4", ptr %__end3, i32 0, i32 0
  store ptr %call1, ptr %coerce.dive2, align 8
  br label %for.cond

for.cond:                                         ; preds = %for.inc, %entry
  %call3 = call noundef zeroext i1 @_ZN9__gnu_cxxneIPKcNSt7__cxx1112basic_stringIcSt11char_traitsIcESaIcEEEEEbRKNS_17__normal_iteratorIT_T0_EESE_(ptr noundef nonnull align 8 dereferenceable(8) %__begin3, ptr noundef nonnull align 8 dereferenceable(8) %__end3) #3
  br i1 %call3, label %for.body, label %for.end

for.body:                                         ; preds = %for.cond
  %call4 = call noundef nonnull align 1 dereferenceable(1) ptr @_ZNK9__gnu_cxx17__normal_iteratorIPKcNSt7__cxx1112basic_stringIcSt11char_traitsIcESaIcEEEEdeEv(ptr noundef nonnull align 8 dereferenceable(8) %__begin3) #3
  %3 = load i8, ptr %call4, align 1
  store i8 %3, ptr %character, align 1
  %4 = load i8, ptr %character, align 1
  %call5 = call noundef zeroext i1 @_ZN6google8protobuf2io12_GLOBAL__N_112Alphanumeric7InClassEc(i8 noundef signext %4)
  br i1 %call5, label %if.end, label %if.then

if.then:                                          ; preds = %for.body
  store i1 false, ptr %retval, align 1
  br label %return

if.end:                                           ; preds = %for.body
  br label %for.inc

for.inc:                                          ; preds = %if.end
  %call6 = call noundef nonnull align 8 dereferenceable(8) ptr @_ZN9__gnu_cxx17__normal_iteratorIPKcNSt7__cxx1112basic_stringIcSt11char_traitsIcESaIcEEEEppEv(ptr noundef nonnull align 8 dereferenceable(8) %__begin3) #3
  br label %for.cond

for.end:                                          ; preds = %for.cond
  store i1 true, ptr %retval, align 1
  br label %return

return:                                           ; preds = %for.end, %if.then
  %5 = load i1, ptr %retval, align 1
  ret i1 %5
}

; Function Attrs: mustprogress nounwind uwtable
define internal noundef zeroext i1 @_ZN6google8protobuf2io12_GLOBAL__N_16Letter7InClassEc(i8 noundef signext %c) #4 align 2 {
entry:
  %c.addr = alloca i8, align 1
  store i8 %c, ptr %c.addr, align 1
  %0 = load i8, ptr %c.addr, align 1
  %conv = sext i8 %0 to i32
  %cmp = icmp sle i32 97, %conv
  br i1 %cmp, label %land.lhs.true, label %lor.lhs.false

land.lhs.true:                                    ; preds = %entry
  %1 = load i8, ptr %c.addr, align 1
  %conv1 = sext i8 %1 to i32
  %cmp2 = icmp sle i32 %conv1, 122
  br i1 %cmp2, label %lor.end, label %lor.lhs.false

lor.lhs.false:                                    ; preds = %land.lhs.true, %entry
  %2 = load i8, ptr %c.addr, align 1
  %conv3 = sext i8 %2 to i32
  %cmp4 = icmp sle i32 65, %conv3
  br i1 %cmp4, label %land.lhs.true5, label %lor.rhs

land.lhs.true5:                                   ; preds = %lor.lhs.false
  %3 = load i8, ptr %c.addr, align 1
  %conv6 = sext i8 %3 to i32
  %cmp7 = icmp sle i32 %conv6, 90
  br i1 %cmp7, label %lor.end, label %lor.rhs

lor.rhs:                                          ; preds = %land.lhs.true5, %lor.lhs.false
  %4 = load i8, ptr %c.addr, align 1
  %conv8 = sext i8 %4 to i32
  %cmp9 = icmp eq i32 %conv8, 95
  br label %lor.end

lor.end:                                          ; preds = %lor.rhs, %land.lhs.true5, %land.lhs.true
  %5 = phi i1 [ true, %land.lhs.true5 ], [ true, %land.lhs.true ], [ %cmp9, %lor.rhs ]
  ret i1 %5
}

; Function Attrs: mustprogress uwtable
define noundef zeroext i1 @_ZN6google8protobuf2io9Tokenizer12IsIdentifierERKNSt7__cxx1112basic_stringIcSt11char_traitsIcESaIcEEE(ptr noundef nonnull align 8 dereferenceable(32) %text) #6 align 2 personality ptr @__gxx_personality_v0 {
entry:
  %retval = alloca i1, align 1
  %text.addr = alloca ptr, align 8
  %ref.tmp = alloca %"class.std::__cxx11::basic_string", align 8
  %exn.slot = alloca ptr, align 8
  %ehselector.slot = alloca i32, align 4
  store ptr %text, ptr %text.addr, align 8
  %0 = load ptr, ptr %text.addr, align 8
  %call = call noundef i64 @_ZNKSt7__cxx1112basic_stringIcSt11char_traitsIcESaIcEE4sizeEv(ptr noundef nonnull align 8 dereferenceable(32) %0) #3
  %cmp = icmp eq i64 %call, 0
  br i1 %cmp, label %if.then, label %if.end

if.then:                                          ; preds = %entry
  store i1 false, ptr %retval, align 1
  br label %return

if.end:                                           ; preds = %entry
  %1 = load ptr, ptr %text.addr, align 8
  %call1 = call noundef nonnull align 1 dereferenceable(1) ptr @_ZNKSt7__cxx1112basic_stringIcSt11char_traitsIcESaIcEE2atEm(ptr noundef nonnull align 8 dereferenceable(32) %1, i64 noundef 0)
  %2 = load i8, ptr %call1, align 1
  %call2 = call noundef zeroext i1 @_ZN6google8protobuf2io12_GLOBAL__N_16Letter7InClassEc(i8 noundef signext %2)
  br i1 %call2, label %if.end4, label %if.then3

if.then3:                                         ; preds = %if.end
  store i1 false, ptr %retval, align 1
  br label %return

if.end4:                                          ; preds = %if.end
  %3 = load ptr, ptr %text.addr, align 8
  call void @_ZNKSt7__cxx1112basic_stringIcSt11char_traitsIcESaIcEE6substrEmm(ptr sret(%"class.std::__cxx11::basic_string") align 8 %ref.tmp, ptr noundef nonnull align 8 dereferenceable(32) %3, i64 noundef 1, i64 noundef -1)
  %call5 = invoke noundef zeroext i1 @_ZN6google8protobuf2ioL10AllInClassINS1_12_GLOBAL__N_112AlphanumericEEEbRKNSt7__cxx1112basic_stringIcSt11char_traitsIcESaIcEEE(ptr noundef nonnull align 8 dereferenceable(32) %ref.tmp)
          to label %invoke.cont unwind label %lpad

invoke.cont:                                      ; preds = %if.end4
  %lnot = xor i1 %call5, true
  call void @_ZNSt7__cxx1112basic_stringIcSt11char_traitsIcESaIcEED1Ev(ptr noundef nonnull align 8 dereferenceable(32) %ref.tmp) #3
  br i1 %lnot, label %if.then6, label %if.end7

if.then6:                                         ; preds = %invoke.cont
  store i1 false, ptr %retval, align 1
  br label %return

lpad:                                             ; preds = %if.end4
  %4 = landingpad { ptr, i32 }
          cleanup
  %5 = extractvalue { ptr, i32 } %4, 0
  store ptr %5, ptr %exn.slot, align 8
  %6 = extractvalue { ptr, i32 } %4, 1
  store i32 %6, ptr %ehselector.slot, align 4
  call void @_ZNSt7__cxx1112basic_stringIcSt11char_traitsIcESaIcEED1Ev(ptr noundef nonnull align 8 dereferenceable(32) %ref.tmp) #3
  br label %eh.resume

if.end7:                                          ; preds = %invoke.cont
  store i1 true, ptr %retval, align 1
  br label %return

return:                                           ; preds = %if.end7, %if.then6, %if.then3, %if.then
  %7 = load i1, ptr %retval, align 1
  ret i1 %7

eh.resume:                                        ; preds = %lpad
  %exn = load ptr, ptr %exn.slot, align 8
  %sel = load i32, ptr %ehselector.slot, align 4
  %lpad.val = insertvalue { ptr, i32 } poison, ptr %exn, 0
  %lpad.val8 = insertvalue { ptr, i32 } %lpad.val, i32 %sel, 1
  resume { ptr, i32 } %lpad.val8
}