; Function Attrs: mustprogress uwtable
define noundef zeroext i1 @_ZN6google8protobuf2io9Tokenizer12IsIdentifierERKNSt7__cxx1112basic_stringIcSt11char_traitsIcESaIcEEE(ptr noundef nonnull align 8 dereferenceable(32) %text) local_unnamed_addr #6 align 2 personality ptr @__gxx_personality_v0 {
entry:
  %ref.tmp = alloca %"class.std::__cxx11::basic_string", align 8
  %call = tail call noundef i64 @_ZNKSt7__cxx1112basic_stringIcSt11char_traitsIcESaIcEE4sizeEv(ptr noundef nonnull align 8 dereferenceable(32) %text) #23
  %cmp = icmp eq i64 %call, 0
  br i1 %cmp, label %return, label %if.end

if.end:                                           ; preds = %entry
  %call1 = tail call noundef nonnull align 1 dereferenceable(1) ptr @_ZNKSt7__cxx1112basic_stringIcSt11char_traitsIcESaIcEE2atEm(ptr noundef nonnull align 8 dereferenceable(32) %text, i64 noundef 0)
  %0 = load i8, ptr %call1, align 1
  %1 = and i8 %0, -33
  %2 = add i8 %1, -65
  %or.cond6.i = icmp ult i8 %2, 26
  %cmp9.i = icmp eq i8 %0, 95
  %spec.select.i = or i1 %cmp9.i, %or.cond6.i
  br i1 %spec.select.i, label %if.end4, label %return

if.end4:                                          ; preds = %if.end
  call void @_ZNKSt7__cxx1112basic_stringIcSt11char_traitsIcESaIcEE6substrEmm(ptr nonnull sret(%"class.std::__cxx11::basic_string") align 8 %ref.tmp, ptr noundef nonnull align 8 dereferenceable(32) %text, i64 noundef 1, i64 noundef -1)
  %call.i = call ptr @_ZNKSt7__cxx1112basic_stringIcSt11char_traitsIcESaIcEE5beginEv(ptr noundef nonnull align 8 dereferenceable(32) %ref.tmp) #23
  %call1.i = call ptr @_ZNKSt7__cxx1112basic_stringIcSt11char_traitsIcESaIcEE3endEv(ptr noundef nonnull align 8 dereferenceable(32) %ref.tmp) #23
  %cmp.i.not4.i = icmp eq ptr %call.i, %call1.i
  br i1 %cmp.i.not4.i, label %_ZN6google8protobuf2ioL10AllInClassINS1_12_GLOBAL__N_112AlphanumericEEEbRKNSt7__cxx1112basic_stringIcSt11char_traitsIcESaIcEEE.exit, label %for.body.i

for.body.i:                                       ; preds = %if.end4, %for.body.i
  %__begin3.sroa.0.05.i = phi ptr [ %incdec.ptr.i.i, %for.body.i ], [ %call.i, %if.end4 ]
  %3 = load i8, ptr %__begin3.sroa.0.05.i, align 1
  %4 = and i8 %3, -33
  %5 = add i8 %4, -65
  %or.cond9.i.i = icmp ult i8 %5, 26
  %6 = add i8 %3, -48
  %or.cond2.i.i = icmp ult i8 %6, 10
  %or.cond10.i.i = or i1 %or.cond2.i.i, %or.cond9.i.i
  %cmp15.i.i = icmp eq i8 %3, 95
  %spec.select.i.i = or i1 %cmp15.i.i, %or.cond10.i.i
  %incdec.ptr.i.i = getelementptr inbounds nuw i8, ptr %__begin3.sroa.0.05.i, i64 1
  %cmp.i.not.i = icmp ne ptr %incdec.ptr.i.i, %call1.i
  %or.cond.not = select i1 %spec.select.i.i, i1 %cmp.i.not.i, i1 false
  br i1 %or.cond.not, label %for.body.i, label %_ZN6google8protobuf2ioL10AllInClassINS1_12_GLOBAL__N_112AlphanumericEEEbRKNSt7__cxx1112basic_stringIcSt11char_traitsIcESaIcEEE.exit

_ZN6google8protobuf2ioL10AllInClassINS1_12_GLOBAL__N_112AlphanumericEEEbRKNSt7__cxx1112basic_stringIcSt11char_traitsIcESaIcEEE.exit: ; preds = %for.body.i, %if.end4
  %cmp.i.not.lcssa.i = phi i1 [ true, %if.end4 ], [ %spec.select.i.i, %for.body.i ]
  call void @_ZNSt7__cxx1112basic_stringIcSt11char_traitsIcESaIcEED1Ev(ptr noundef nonnull align 8 dereferenceable(32) %ref.tmp) #23
  br label %return

return:                                           ; preds = %_ZN6google8protobuf2ioL10AllInClassINS1_12_GLOBAL__N_112AlphanumericEEEbRKNSt7__cxx1112basic_stringIcSt11char_traitsIcESaIcEEE.exit, %if.end, %entry
  %retval.0 = phi i1 [ false, %entry ], [ false, %if.end ], [ %cmp.i.not.lcssa.i, %_ZN6google8protobuf2ioL10AllInClassINS1_12_GLOBAL__N_112AlphanumericEEEbRKNSt7__cxx1112basic_stringIcSt11char_traitsIcESaIcEEE.exit ]
  ret i1 %retval.0
}